; ModuleID = '61/644.c'
source_filename = "61/644.c"
target datalayout = "e-m:e-p270:32:32-p271:32:32-p272:64:64-i64:64-f80:128-n8:16:32:64-S128"
target triple = "x86_64-pc-linux-gnu"

@.str = private unnamed_addr constant [3 x i8] c"%d\00", align 1
@.str.1 = private unnamed_addr constant [4 x i8] c"%d\0A\00", align 1

; Function Attrs: noinline nounwind uwtable
define dso_local i32 @main() #0 {
  %1 = alloca i32, align 4
  %2 = alloca i32, align 4
  %3 = alloca i32, align 4
  %4 = alloca [30 x i32], align 16
  %5 = alloca i32, align 4
  %6 = alloca i32, align 4
  %7 = alloca i32, align 4
  %8 = alloca i32, align 4
  store i32 0, i32* %1, align 4
  store i32 1, i32* %5, align 4
  store i32 1, i32* %6, align 4
  %9 = getelementptr inbounds [30 x i32], [30 x i32]* %4, i64 0, i64 0
  store i32 1, i32* %9, align 16
  %10 = getelementptr inbounds [30 x i32], [30 x i32]* %4, i64 0, i64 1
  store i32 1, i32* %10, align 4
  store i32 2, i32* %7, align 4
  br label %11

11:                                               ; preds = %26, %0
  %12 = load i32, i32* %7, align 4
  %13 = icmp slt i32 %12, 30
  br i1 %13, label %14, label %29

14:                                               ; preds = %11
  %15 = load i32, i32* %5, align 4
  %16 = load i32, i32* %6, align 4
  %17 = add nsw i32 %15, %16
  %18 = load i32, i32* %7, align 4
  %19 = sext i32 %18 to i64
  %20 = getelementptr inbounds [30 x i32], [30 x i32]* %4, i64 0, i64 %19
  store i32 %17, i32* %20, align 4
  %21 = load i32, i32* %5, align 4
  store i32 %21, i32* %8, align 4
  %22 = load i32, i32* %5, align 4
  %23 = load i32, i32* %6, align 4
  %24 = add nsw i32 %22, %23
  store i32 %24, i32* %5, align 4
  %25 = load i32, i32* %8, align 4
  store i32 %25, i32* %6, align 4
  br label %26

26:                                               ; preds = %14
  %27 = load i32, i32* %7, align 4
  %28 = add nsw i32 %27, 1
  store i32 %28, i32* %7, align 4
  br label %11

29:                                               ; preds = %11
  %30 = call i32 (i8*, ...) @__isoc99_scanf(i8* getelementptr inbounds ([3 x i8], [3 x i8]* @.str, i64 0, i64 0), i32* %2)
  store i32 0, i32* %7, align 4
  br label %31

31:                                               ; preds = %43, %29
  %32 = load i32, i32* %7, align 4
  %33 = load i32, i32* %2, align 4
  %34 = icmp slt i32 %32, %33
  br i1 %34, label %35, label %46

35:                                               ; preds = %31
  %36 = call i32 (i8*, ...) @__isoc99_scanf(i8* getelementptr inbounds ([3 x i8], [3 x i8]* @.str, i64 0, i64 0), i32* %3)
  %37 = load i32, i32* %3, align 4
  %38 = sub nsw i32 %37, 1
  %39 = sext i32 %38 to i64
  %40 = getelementptr inbounds [30 x i32], [30 x i32]* %4, i64 0, i64 %39
  %41 = load i32, i32* %40, align 4
  %42 = call i32 (i8*, ...) @printf(i8* getelementptr inbounds ([4 x i8], [4 x i8]* @.str.1, i64 0, i64 0), i32 %41)
  br label %43

43:                                               ; preds = %35
  %44 = load i32, i32* %7, align 4
  %45 = add nsw i32 %44, 1
  store i32 %45, i32* %7, align 4
  br label %31

46:                                               ; preds = %31
  ret i32 0
}

declare dso_local i32 @__isoc99_scanf(i8*, ...) #1

declare dso_local i32 @printf(i8*, ...) #1


!llvm.module.flags = !{!0}
!llvm.ident = !{!1}

!0 = !{i32 1, !"wchar_size", i32 4}
!1 = !{!"clang version 10.0.0-4ubuntu1 "}
