; ModuleID = 'source-C-CXX/60/644.c'
source_filename = "source-C-CXX/60/644.c"
target datalayout = "e-m:e-p270:32:32-p271:32:32-p272:64:64-i64:64-f80:128-n8:16:32:64-S128"
target triple = "x86_64-pc-linux-gnu"

@.str = private unnamed_addr constant [3 x i8] c"%d\00", align 1
@.str.1 = private unnamed_addr constant [4 x i8] c"%d\0A\00", align 1

; Function Attrs: nofree nounwind sspstrong uwtable
define dso_local i32 @main() local_unnamed_addr #0 {
  %1 = alloca i32, align 4
  %2 = alloca i32, align 4
  %3 = alloca [30 x i32], align 16
  %4 = bitcast i32* %1 to i8*
  call void @llvm.lifetime.start.p0i8(i64 4, i8* nonnull %4) #3
  %5 = bitcast i32* %2 to i8*
  call void @llvm.lifetime.start.p0i8(i64 4, i8* nonnull %5) #3
  %6 = bitcast [30 x i32]* %3 to i8*
  call void @llvm.lifetime.start.p0i8(i64 120, i8* nonnull %6) #3
  %7 = bitcast [30 x i32]* %3 to <4 x i32>*
  store <4 x i32> <i32 1, i32 1, i32 2, i32 3>, <4 x i32>* %7, align 16, !tbaa !5
  %8 = getelementptr inbounds [30 x i32], [30 x i32]* %3, i64 0, i64 4
  %9 = bitcast i32* %8 to <4 x i32>*
  store <4 x i32> <i32 5, i32 8, i32 13, i32 21>, <4 x i32>* %9, align 16, !tbaa !5
  %10 = getelementptr inbounds [30 x i32], [30 x i32]* %3, i64 0, i64 8
  %11 = bitcast i32* %10 to <4 x i32>*
  store <4 x i32> <i32 34, i32 55, i32 89, i32 144>, <4 x i32>* %11, align 16, !tbaa !5
  %12 = getelementptr inbounds [30 x i32], [30 x i32]* %3, i64 0, i64 12
  %13 = bitcast i32* %12 to <4 x i32>*
  store <4 x i32> <i32 233, i32 377, i32 610, i32 987>, <4 x i32>* %13, align 16, !tbaa !5
  %14 = getelementptr inbounds [30 x i32], [30 x i32]* %3, i64 0, i64 16
  %15 = bitcast i32* %14 to <4 x i32>*
  store <4 x i32> <i32 1597, i32 2584, i32 4181, i32 6765>, <4 x i32>* %15, align 16, !tbaa !5
  %16 = getelementptr inbounds [30 x i32], [30 x i32]* %3, i64 0, i64 20
  %17 = bitcast i32* %16 to <4 x i32>*
  store <4 x i32> <i32 10946, i32 17711, i32 28657, i32 46368>, <4 x i32>* %17, align 16, !tbaa !5
  %18 = getelementptr inbounds [30 x i32], [30 x i32]* %3, i64 0, i64 24
  %19 = bitcast i32* %18 to <4 x i32>*
  store <4 x i32> <i32 75025, i32 121393, i32 196418, i32 317811>, <4 x i32>* %19, align 16, !tbaa !5
  %20 = getelementptr inbounds [30 x i32], [30 x i32]* %3, i64 0, i64 28
  store i32 514229, i32* %20, align 16, !tbaa !5
  %21 = getelementptr inbounds [30 x i32], [30 x i32]* %3, i64 0, i64 29
  store i32 832040, i32* %21, align 4, !tbaa !5
  %22 = call i32 (i8*, ...) @__isoc99_scanf(i8* getelementptr inbounds ([3 x i8], [3 x i8]* @.str, i64 0, i64 0), i32* nonnull %1)
  %23 = load i32, i32* %1, align 4, !tbaa !5
  %24 = icmp sgt i32 %23, 0
  br i1 %24, label %25, label %37

25:                                               ; preds = %0, %25
  %26 = phi i32 [ %34, %25 ], [ 0, %0 ]
  %27 = call i32 (i8*, ...) @__isoc99_scanf(i8* getelementptr inbounds ([3 x i8], [3 x i8]* @.str, i64 0, i64 0), i32* nonnull %2)
  %28 = load i32, i32* %2, align 4, !tbaa !5
  %29 = add nsw i32 %28, -1
  %30 = sext i32 %29 to i64
  %31 = getelementptr inbounds [30 x i32], [30 x i32]* %3, i64 0, i64 %30
  %32 = load i32, i32* %31, align 4, !tbaa !5
  %33 = call i32 (i8*, ...) @printf(i8* nonnull dereferenceable(1) getelementptr inbounds ([4 x i8], [4 x i8]* @.str.1, i64 0, i64 0), i32 %32)
  %34 = add nuw nsw i32 %26, 1
  %35 = load i32, i32* %1, align 4, !tbaa !5
  %36 = icmp slt i32 %34, %35
  br i1 %36, label %25, label %37, !llvm.loop !9

37:                                               ; preds = %25, %0
  call void @llvm.lifetime.end.p0i8(i64 120, i8* nonnull %6) #3
  call void @llvm.lifetime.end.p0i8(i64 4, i8* nonnull %5) #3
  call void @llvm.lifetime.end.p0i8(i64 4, i8* nonnull %4) #3
  ret i32 0
}

; Function Attrs: argmemonly mustprogress nofree nosync nounwind willreturn
declare void @llvm.lifetime.start.p0i8(i64 immarg, i8* nocapture) #1

; Function Attrs: nofree nounwind
declare noundef i32 @__isoc99_scanf(i8* nocapture noundef readonly, ...) local_unnamed_addr #2

; Function Attrs: nofree nounwind
declare noundef i32 @printf(i8* nocapture noundef readonly, ...) local_unnamed_addr #2

; Function Attrs: argmemonly mustprogress nofree nosync nounwind willreturn
declare void @llvm.lifetime.end.p0i8(i64 immarg, i8* nocapture) #1


!llvm.module.flags = !{!0, !1, !2, !3}
!llvm.ident = !{!4}

!0 = !{i32 1, !"wchar_size", i32 4}
!1 = !{i32 7, !"PIC Level", i32 2}
!2 = !{i32 7, !"PIE Level", i32 2}
!3 = !{i32 7, !"uwtable", i32 1}
!4 = !{!"clang version 13.0.0"}
!5 = !{!6, !6, i64 0}
!6 = !{!"int", !7, i64 0}
!7 = !{!"omnipotent char", !8, i64 0}
!8 = !{!"Simple C/C++ TBAA"}
!9 = distinct !{!9, !10}
!10 = !{!"llvm.loop.mustprogress"}
